; Function Attrs: mustprogress uwtable
define void @_ZN32pxrInternal_v0_24__pxrReserved__11GfDualQuath14SetTranslationERKNS_7GfVec3hE(ptr noundef nonnull align 2 dereferenceable(16) %0, ptr nocapture noundef nonnull readonly align 2 dereferenceable(6) %1) local_unnamed_addr #0 align 2 {
  %3 = alloca %"class.pxrInternal_v0_24__pxrReserved__::GfQuath", align 8
  %4 = alloca %"class.pxrInternal_v0_24__pxrReserved__::GfVec3h", align 2
  call void @llvm.lifetime.start.p0(i64 6, ptr nonnull %4)
  call void @llvm.memcpy.p0.p0.i64(ptr noundef nonnull align 2 dereferenceable(6) %4, ptr noundef nonnull align 2 dereferenceable(6) %1, i64 6, i1 false)
  %5 = call noundef nonnull align 2 dereferenceable(6) ptr @_ZN32pxrInternal_v0_24__pxrReserved__7GfVec3hmLEd(ptr noundef nonnull align 2 dereferenceable(6) %4, double noundef 5.000000e-01)
  %.sroa.0.0.copyload.i.i = load i48, ptr %5, align 2
  call void @llvm.lifetime.end.p0(i64 6, ptr nonnull %4)
  call void @llvm.lifetime.start.p0(i64 8, ptr nonnull %3)
  %.sroa.03.0.insert.ext = zext i48 %.sroa.0.0.copyload.i.i to i64
  store i64 %.sroa.03.0.insert.ext, ptr %3, align 8
  %6 = call noundef nonnull align 2 dereferenceable(8) ptr @_ZN32pxrInternal_v0_24__pxrReserved__7GfQuathmLERKS0_(ptr noundef nonnull align 2 dereferenceable(8) %3, ptr noundef nonnull align 2 dereferenceable(8) %0)
  %.sroa.0.0.copyload.i = load i64, ptr %6, align 2
  call void @llvm.lifetime.end.p0(i64 8, ptr nonnull %3)
  %7 = getelementptr inbounds nuw i8, ptr %0, i64 8
  store i64 %.sroa.0.0.copyload.i, ptr %7, align 2
  ret void
}